target datalayout = "e-m:e-p270:32:32-p271:32:32-p272:64:64-i64:64-i128:128-f80:128-n8:16:32:64-S128"
target triple = "x86_64-pc-linux-gnu"

%"class.Ipopt::CGPenaltyData" = type <{ %"class.Ipopt::IpoptAdditionalData.base", [4 x i8], %"class.Ipopt::SmartPtr", i8, [7 x i8], %"class.Ipopt::SmartPtr", i8, i8, [2 x i8], i32, double, double, i8, [7 x i8], double, i8, [7 x i8], double, double, i8, [7 x i8] }>
%"class.Ipopt::IpoptAdditionalData.base" = type { %"class.Ipopt::ReferencedObject.base" }
%"class.Ipopt::ReferencedObject.base" = type <{ ptr, i32 }>
%"class.Ipopt::SmartPtr" = type { ptr }

; Function Attrs: mustprogress nounwind uwtable
define noundef zeroext i1 @_ZN5Ipopt13CGPenaltyData10InitializeERKNS_10JournalistERKNS_11OptionsListERKNSt7__cxx1112basic_stringIcSt11char_traitsIcESaIcEEE(ptr noundef nonnull align 8 dereferenceable(105) %0, ptr noundef nonnull align 8 dereferenceable(40) %1, ptr noundef nonnull align 8 dereferenceable(112) %2, ptr noundef nonnull align 8 dereferenceable(32) %3) unnamed_addr #5 align 2 {
  %5 = alloca ptr, align 8
  %6 = alloca ptr, align 8
  %7 = alloca ptr, align 8
  %8 = alloca ptr, align 8
  store ptr %0, ptr %5, align 8
  store ptr %1, ptr %6, align 8
  store ptr %2, ptr %7, align 8
  store ptr %3, ptr %8, align 8
  %9 = load ptr, ptr %5, align 8
  %10 = getelementptr inbounds %"class.Ipopt::CGPenaltyData", ptr %9, i32 0, i32 3
  store i8 0, ptr %10, align 8
  %11 = getelementptr inbounds %"class.Ipopt::CGPenaltyData", ptr %9, i32 0, i32 6
  store i8 0, ptr %11, align 8
  %12 = getelementptr inbounds %"class.Ipopt::CGPenaltyData", ptr %9, i32 0, i32 19
  store i8 1, ptr %12, align 8
  %13 = getelementptr inbounds %"class.Ipopt::CGPenaltyData", ptr %9, i32 0, i32 12
  store i8 0, ptr %13, align 8
  %14 = getelementptr inbounds %"class.Ipopt::CGPenaltyData", ptr %9, i32 0, i32 15
  store i8 0, ptr %14, align 8
  %15 = getelementptr inbounds %"class.Ipopt::CGPenaltyData", ptr %9, i32 0, i32 17
  store double 0.000000e+00, ptr %15, align 8
  %16 = getelementptr inbounds %"class.Ipopt::CGPenaltyData", ptr %9, i32 0, i32 18
  store double 1.000000e+00, ptr %16, align 8
  %17 = getelementptr inbounds %"class.Ipopt::CGPenaltyData", ptr %9, i32 0, i32 7
  store i8 0, ptr %17, align 1
  %18 = getelementptr inbounds %"class.Ipopt::CGPenaltyData", ptr %9, i32 0, i32 9
  store i32 -1, ptr %18, align 4
  %19 = getelementptr inbounds %"class.Ipopt::CGPenaltyData", ptr %9, i32 0, i32 10
  store double 0.000000e+00, ptr %19, align 8
  ret i1 true
}