; Function Attrs: mustprogress nofree norecurse nosync nounwind willreturn memory(argmem: write) uwtable
define noundef zeroext i1 @_ZN5Ipopt13CGPenaltyData10InitializeERKNS_10JournalistERKNS_11OptionsListERKNSt7__cxx1112basic_stringIcSt11char_traitsIcESaIcEEE(ptr nocapture noundef nonnull writeonly align 8 dereferenceable(105) %0, ptr nocapture nonnull readnone align 8 %1, ptr nocapture nonnull readnone align 8 %2, ptr nocapture nonnull readnone align 8 %3) unnamed_addr #3 align 2 {
  %5 = getelementptr inbounds i8, ptr %0, i64 24
  store i8 0, ptr %5, align 8
  %6 = getelementptr inbounds i8, ptr %0, i64 40
  store i8 0, ptr %6, align 8
  %7 = getelementptr inbounds i8, ptr %0, i64 104
  store i8 1, ptr %7, align 8
  %8 = getelementptr inbounds i8, ptr %0, i64 64
  store i8 0, ptr %8, align 8
  %9 = getelementptr inbounds i8, ptr %0, i64 80
  store i8 0, ptr %9, align 8
  %10 = getelementptr inbounds i8, ptr %0, i64 88
  store <2 x double> <double 0.000000e+00, double 1.000000e+00>, ptr %10, align 8
  %11 = getelementptr inbounds i8, ptr %0, i64 41
  store i8 0, ptr %11, align 1
  %12 = getelementptr inbounds i8, ptr %0, i64 44
  store i32 -1, ptr %12, align 4
  %13 = getelementptr inbounds i8, ptr %0, i64 48
  store double 0.000000e+00, ptr %13, align 8
  ret i1 true
}